(dp1
(S'B'
S'N'
tp2
I3
s(S'S'
S'W'
tp3
I-2
s(S'G'
S'G'
tp4
I5
s(S'X'
S'D'
tp5
I-2
s(S'E'
S'M'
tp6
I-3
s(S'P'
S'-'
tp7
I-8
s(S'A'
S'N'
tp8
I-1
s(S'-'
S'F'
tp9
I-8
s(S'A'
S'Y'
tp10
I-4
s(S'W'
S'Q'
tp11
I-6
s(S'V'
S'N'
tp12
I-3
s(S'F'
S'K'
tp13
I-7
s(S'C'
S'Z'
tp14
I-7
s(S'V'
S'X'
tp15
I-1
s(S'G'
S'E'
tp16
I-1
s(S'E'
S'D'
tp17
I3
s(S'F'
S'Z'
tp18
I-6
s(S'W'
S'P'
tp19
I-7
s(S'H'
S'B'
tp20
I1
s(S'I'
S'T'
tp21
I0
s(S'F'
S'D'
tp22
I-7
s(S'X'
S'M'
tp23
I-2
s(S'K'
S'V'
tp24
I-4
s(S'C'
S'Y'
tp25
I-1
s(S'G'
S'D'
tp26
I0
s(S'T'
S'N'
tp27
I0
s(S'W'
S'W'
tp28
I12
s(S'Y'
S'X'
tp29
I-3
s(S'X'
S'Z'
tp30
I-1
s(S'S'
S'S'
tp31
I3
s(S'X'
S'C'
tp32
I-4
s(S'X'
S'H'
tp33
I-2
s(S'K'
S'C'
tp34
I-7
s(S'E'
S'F'
tp35
I-7
s(S'N'
S'L'
tp36
I-4
s(S'-'
S'Y'
tp37
I-8
s(S'Z'
S'P'
tp38
I-1
s(S'A'
S'K'
tp39
I-2
s(S'Y'
S'-'
tp40
I-8
s(S'A'
S'B'
tp41
I0
s(S'-'
S'B'
tp42
I-8
s(S'Q'
S'P'
tp43
I0
s(S'F'
S'G'
tp44
I-5
s(S'D'
S'S'
tp45
I0
s(S'C'
S'V'
tp46
I-3
s(S'D'
S'X'
tp47
I-2
s(S'V'
S'T'
tp48
I0
s(S'H'
S'P'
tp49
I-1
s(S'P'
S'V'
tp50
I-2
s(S'I'
S'Q'
tp51
I-3
s(S'F'
S'V'
tp52
I-3
s(S'W'
S'T'
tp53
I-6
s(S'H'
S'F'
tp54
I-3
s(S'P'
S'D'
tp55
I-3
s(S'Q'
S'R'
tp56
I1
s(S'D'
S'Q'
tp57
I1
s(S'K'
S'Q'
tp58
I0
s(S'Z'
S'S'
tp59
I-1
s(S'D'
S'F'
tp60
I-7
s(S'X'
S'G'
tp61
I-2
s(S'X'
S'L'
tp62
I-2
s(S'G'
S'Z'
tp63
I-2
s(S'V'
S'W'
tp64
I-8
s(S'T'
S'C'
tp65
I-3
s(S'A'
S'F'
tp66
I-4
s(S'T'
S'H'
tp67
I-3
s(S'A'
S'Q'
tp68
I-1
s(S'Q'
S'T'
tp69
I-2
s(S'V'
S'F'
tp70
I-3
s(S'F'
S'C'
tp71
I-6
s(S'C'
S'R'
tp72
I-4
s(S'V'
S'P'
tp73
I-2
s(S'F'
S'-'
tp74
I-8
s(S'H'
S'T'
tp75
I-3
s(S'X'
S'-'
tp76
I-8
s(S'E'
S'L'
tp77
I-4
s(S'F'
S'R'
tp78
I-5
s(S'I'
S'G'
tp79
I-4
s(S'-'
S'W'
tp80
I-8
s(S'C'
S'Q'
tp81
I-7
s(S'-'
S'-'
tp82
I1
s(S'Y'
S'V'
tp83
I-3
s(S'T'
S'A'
tp84
I1
s(S'T'
S'V'
tp85
I0
s(S'Q'
S'V'
tp86
I-3
s(S'R'
S'-'
tp87
I-8
s(S'S'
S'K'
tp88
I-1
s(S'X'
S'K'
tp89
I-2
s(S'X'
S'P'
tp90
I-2
s(S'K'
S'K'
tp91
I5
s(S'E'
S'N'
tp92
I1
s(S'N'
S'T'
tp93
I0
s(S'-'
S'Q'
tp94
I-8
s(S'A'
S'H'
tp95
I-3
s(S'A'
S'C'
tp96
I-3
s(S'V'
S'S'
tp97
I-2
s(S'A'
S'Z'
tp98
I-1
s(S'M'
S'Z'
tp99
I-2
s(S'Q'
S'H'
tp100
I3
s(S'V'
S'B'
tp101
I-3
s(S'P'
S'X'
tp102
I-2
s(S'H'
S'S'
tp103
I-2
s(S'Q'
S'Y'
tp104
I-5
s(S'H'
S'X'
tp105
I-2
s(S'P'
S'N'
tp106
I-2
s(S'I'
S'Y'
tp107
I-2
s(S'P'
S'G'
tp108
I-2
s(S'F'
S'N'
tp109
I-4
s(S'H'
S'N'
tp110
I2
s(S'-'
S'X'
tp111
I-8
s(S'-'
S'S'
tp112
I-8
s(S'K'
S'H'
tp113
I-2
s(S'N'
S'W'
tp114
I-4
s(S'S'
S'Y'
tp115
I-3
s(S'W'
S'N'
tp116
I-4
s(S'D'
S'Y'
tp117
I-5
s(S'E'
S'Q'
tp118
I2
s(S'K'
S'Y'
tp119
I-5
s(S'D'
S'N'
tp120
I2
s(S'X'
S'T'
tp121
I-1
s(S'H'
S'-'
tp122
I-8
s(S'Y'
S'S'
tp123
I-3
s(S'G'
S'R'
tp124
I-4
s(S'M'
S'-'
tp125
I-8
s(S'A'
S'L'
tp126
I-3
s(S'L'
S'Z'
tp127
I-3
s(S'A'
S'G'
tp128
I1
s(S'Y'
S'B'
tp129
I-3
s(S'T'
S'K'
tp130
I-1
s(S'T'
S'P'
tp131
I-1
s(S'M'
S'V'
tp132
I1
s(S'Q'
S'L'
tp133
I-2
s(S'E'
S'S'
tp134
I-1
s(S'H'
S'W'
tp135
I-3
s(S'I'
S'D'
tp136
I-3
s(S'-'
S'T'
tp137
I-8
s(S'K'
S'F'
tp138
I-7
s(S'L'
S'X'
tp139
I-2
s(S'N'
S'A'
tp140
I-1
s(S'T'
S'I'
tp141
I0
s(S'Q'
S'N'
tp142
I0
s(S'K'
S'W'
tp143
I-5
s(S'N'
S'-'
tp144
I-8
s(S'S'
S'C'
tp145
I0
s(S'X'
S'S'
tp146
I-1
s(S'N'
S'B'
tp147
I3
s(S'X'
S'X'
tp148
I-2
s(S'Z'
S'L'
tp149
I-3
s(S'Y'
S'Y'
tp150
I8
s(S'G'
S'V'
tp151
I-2
s(S'-'
S'I'
tp152
I-8
s(S'L'
S'V'
tp153
I1
s(S'A'
S'R'
tp154
I-3
s(S'Z'
S'M'
tp155
I-2
s(S'M'
S'R'
tp156
I-1
s(S'Y'
S'L'
tp157
I-2
s(S'D'
S'C'
tp158
I-7
s(S'P'
S'P'
tp159
I6
s(S'D'
S'H'
tp160
I0
s(S'Q'
S'Q'
tp161
I6
s(S'I'
S'V'
tp162
I3
s(S'P'
S'F'
tp163
I-5
s(S'I'
S'A'
tp164
I-1
s(S'F'
S'F'
tp165
I8
s(S'K'
S'T'
tp166
I-1
s(S'-'
S'P'
tp167
I-8
s(S'-'
S'K'
tp168
I-8
s(S'L'
S'T'
tp169
I-3
s(S'Q'
S'B'
tp170
I0
s(S'S'
S'Q'
tp171
I-2
s(S'X'
S'A'
tp172
I-1
s(S'W'
S'F'
tp173
I-1
s(S'D'
S'A'
tp174
I0
s(S'E'
S'Y'
tp175
I-5
s(S'K'
S'A'
tp176
I-2
s(S'X'
S'W'
tp177
I-5
s(S'Q'
S'S'
tp178
I-2
s(S'D'
S'-'
tp179
I-8
s(S'-'
S'E'
tp180
I-8
s(S'A'
S'D'
tp181
I0
s(S'L'
S'R'
tp182
I-4
s(S'T'
S'S'
tp183
I2
s(S'A'
S'V'
tp184
I0
s(S'T'
S'X'
tp185
I-1
s(S'M'
S'N'
tp186
I-3
s(S'Q'
S'D'
tp187
I1
s(S'X'
S'E'
tp188
I-1
s(S'S'
S'X'
tp189
I-1
s(S'E'
S'P'
tp190
I-2
s(S'V'
S'V'
tp191
I5
s(S'S'
S'G'
tp192
I1
s(S'I'
S'S'
tp193
I-2
s(S'P'
S'M'
tp194
I-3
s(S'H'
S'D'
tp195
I0
s(S'Z'
S'B'
tp196
I2
s(S'F'
S'B'
tp197
I-5
s(S'X'
S'R'
tp198
I-2
s(S'I'
S'L'
tp199
I1
s(S'-'
S'L'
tp200
I-8
s(S'-'
S'G'
tp201
I-8
s(S'K'
S'N'
tp202
I1
s(S'L'
S'P'
tp203
I-3
s(S'Y'
S'I'
tp204
I-2
s(S'N'
S'I'
tp205
I-2
s(S'T'
S'Q'
tp206
I-2
s(S'Q'
S'F'
tp207
I-6
s(S'Z'
S'H'
tp208
I1
s(S'S'
S'M'
tp209
I-2
s(S'E'
S'R'
tp210
I-3
s(S'W'
S'Z'
tp211
I-7
s(S'Q'
S'W'
tp212
I-6
s(S'C'
S'-'
tp213
I-8
s(S'Z'
S'D'
tp214
I3
s(S'G'
S'N'
tp215
I0
s(S'L'
S'Y'
tp216
I-2
s(S'-'
S'A'
tp217
I-8
s(S'A'
S'X'
tp218
I-1
s(S'L'
S'N'
tp219
I-4
s(S'A'
S'S'
tp220
I1
s(S'Z'
S'E'
tp221
I4
s(S'D'
S'T'
tp222
I-1
s(S'S'
S'T'
tp223
I2
s(S'P'
S'Z'
tp224
I-1
s(S'P'
S'S'
tp225
I1
s(S'V'
S'R'
tp226
I-3
s(S'D'
S'K'
tp227
I-1
s(S'P'
S'H'
tp228
I-1
s(S'H'
S'C'
tp229
I-4
s(S'Q'
S'I'
tp230
I-3
s(S'H'
S'H'
tp231
I7
s(S'I'
S'I'
tp232
I6
s(S'-'
S'H'
tp233
I-8
s(S'L'
S'W'
tp234
I-3
s(S'-'
S'C'
tp235
I-8
s(S'-'
S'M'
tp236
I-8
s(S'B'
S'-'
tp237
I-8
s(S'L'
S'L'
tp238
I5
s(S'K'
S'-'
tp239
I-8
s(S'Z'
S'G'
tp240
I-2
s(S'D'
S'R'
tp241
I-3
s(S'S'
S'I'
tp242
I-2
s(S'X'
S'I'
tp243
I-1
s(S'T'
S'-'
tp244
I-8
s(S'D'
S'I'
tp245
I-3
s(S'E'
S'A'
tp246
I0
s(S'K'
S'I'
tp247
I-3
s(S'Q'
S'K'
tp248
I0
s(S'G'
S'B'
tp249
I0
s(S'T'
S'D'
tp250
I-1
s(S'A'
S'W'
tp251
I-7
s(S'Y'
S'R'
tp252
I-5
s(S'M'
S'F'
tp253
I-1
s(S'S'
S'P'
tp254
I1
s(S'Z'
S'I'
tp255
I-3
s(S'H'
S'Q'
tp256
I3
s(S'E'
S'X'
tp257
I-1
s(S'Y'
S'N'
tp258
I-2
s(S'I'
S'P'
tp259
I-3
s(S'E'
S'C'
tp260
I-7
s(S'H'
S'G'
tp261
I-4
s(S'P'
S'E'
tp262
I-2
s(S'Q'
S'M'
tp263
I-1
s(S'H'
S'L'
tp264
I-3
s(S'Z'
S'Z'
tp265
I4
s(S'A'
S'-'
tp266
I-8
s(S'-'
S'D'
tp267
I-8
s(S'L'
S'S'
tp268
I-4
s(S'L'
S'H'
tp269
I-3
s(S'N'
S'Q'
tp270
I0
s(S'T'
S'Y'
tp271
I-3
s(S'K'
S'G'
tp272
I-3
s(S'S'
S'E'
tp273
I-1
s(S'E'
S'Z'
tp274
I4
s(S'Y'
S'E'
tp275
I-5
s(S'W'
S'R'
tp276
I1
s(S'Z'
S'A'
tp277
I-1
s(S'V'
S'M'
tp278
I1
s(S'N'
S'R'
tp279
I-1
s(S'Z'
S'Q'
tp280
I4
s(S'G'
S'F'
tp281
I-5
s(S'F'
S'Y'
tp282
I4
s(S'L'
S'Q'
tp283
I-2
s(S'M'
S'Y'
tp284
I-4
s(S'A'
S'P'
tp285
I1
s(S'S'
S'N'
tp286
I1
s(S'C'
S'L'
tp287
I-7
s(S'L'
S'F'
tp288
I0
s(S'D'
S'W'
tp289
I-8
s(S'M'
S'B'
tp290
I-4
s(S'S'
S'L'
tp291
I-4
s(S'P'
S'R'
tp292
I-1
s(S'I'
S'-'
tp293
I-8
s(S'P'
S'K'
tp294
I-2
s(S'Y'
S'G'
tp295
I-6
s(S'C'
S'K'
tp296
I-7
s(S'H'
S'K'
tp297
I-2
s(S'Q'
S'A'
tp298
I-1
s(S'I'
S'F'
tp299
I0
s(S'K'
S'D'
tp300
I-1
s(S'N'
S'C'
tp301
I-5
s(S'L'
S'D'
tp302
I-5
s(S'Y'
S'K'
tp303
I-5
s(S'D'
S'Z'
tp304
I3
s(S'G'
S'-'
tp305
I-8
s(S'S'
S'A'
tp306
I1
s(S'X'
S'Q'
tp307
I-1
s(S'W'
S'V'
tp308
I-8
s(S'E'
S'I'
tp309
I-3
s(S'V'
S'I'
tp310
I3
s(S'Q'
S'C'
tp311
I-7
s(S'T'
S'G'
tp312
I-1
s(S'B'
S'P'
tp313
I-2
s(S'T'
S'L'
tp314
I-3
s(S'L'
S'M'
tp315
I3
s(S'A'
S'T'
tp316
I1
s(S'C'
S'H'
tp317
I-4
s(S'L'
S'B'
tp318
I-4
s(S'Y'
S'Z'
tp319
I-5
s(S'S'
S'Z'
tp320
I-1
s(S'P'
S'Y'
tp321
I-6
s(S'S'
S'H'
tp322
I-2
s(S'B'
S'Q'
tp323
I0
s(S'H'
S'Y'
tp324
I-1
s(S'I'
S'X'
tp325
I-1
s(S'E'
S'K'
tp326
I-1
s(S'C'
S'G'
tp327
I-4
s(S'I'
S'C'
tp328
I-3
s(S'Q'
S'E'
tp329
I2
s(S'K'
S'R'
tp330
I2
s(S'Z'
S'R'
tp331
I-1
s(S'T'
S'E'
tp332
I-2
s(S'B'
S'R'
tp333
I-2
s(S'L'
S'K'
tp334
I-4
s(S'M'
S'W'
tp335
I-6
s(S'N'
S'Y'
tp336
I-2
s(S'B'
S'S'
tp337
I0
s(S'E'
S'B'
tp338
I3
s(S'N'
S'H'
tp339
I2
s(S'V'
S'E'
tp340
I-3
s(S'Q'
S'G'
tp341
I-3
s(S'Z'
S'T'
tp342
I-2
s(S'Y'
S'D'
tp343
I-5
s(S'B'
S'T'
tp344
I0
s(S'F'
S'Q'
tp345
I-6
s(S'G'
S'Y'
tp346
I-6
s(S'L'
S'I'
tp347
I1
s(S'M'
S'Q'
tp348
I-1
s(S'R'
S'A'
tp349
I-3
s(S'C'
S'D'
tp350
I-7
s(S'S'
S'V'
tp351
I-2
s(S'D'
S'D'
tp352
I5
s(S'T'
S'B'
tp353
I0
s(S'S'
S'D'
tp354
I0
s(S'P'
S'C'
tp355
I-4
s(S'G'
S'X'
tp356
I-2
s(S'E'
S'-'
tp357
I-8
s(S'R'
S'B'
tp358
I-2
s(S'C'
S'C'
tp359
I9
s(S'W'
S'K'
tp360
I-5
s(S'I'
S'N'
tp361
I-2
s(S'B'
S'V'
tp362
I-3
s(S'K'
S'L'
tp363
I-4
s(S'M'
S'X'
tp364
I-2
s(S'N'
S'K'
tp365
I1
s(S'L'
S'G'
tp366
I-5
s(S'M'
S'S'
tp367
I-2
s(S'R'
S'C'
tp368
I-4
s(S'X'
S'B'
tp369
I-1
s(S'Z'
S'W'
tp370
I-7
s(S'D'
S'B'
tp371
I4
s(S'B'
S'W'
tp372
I-6
s(S'X'
S'Y'
tp373
I-3
s(S'R'
S'D'
tp374
I-3
s(S'V'
S'A'
tp375
I0
s(S'W'
S'I'
tp376
I-6
s(S'W'
S'B'
tp377
I-6
s(S'B'
S'X'
tp378
I-1
s(S'T'
S'T'
tp379
I4
s(S'F'
S'M'
tp380
I-1
s(S'L'
S'E'
tp381
I-4
s(S'M'
S'M'
tp382
I8
s(S'R'
S'E'
tp383
I-3
s(S'W'
S'H'
tp384
I-3
s(S'S'
S'R'
tp385
I-1
s(S'E'
S'W'
tp386
I-8
s(S'P'
S'Q'
tp387
I0
s(S'B'
S'Y'
tp388
I-3
s(S'H'
S'A'
tp389
I-3
s(S'Y'
S'A'
tp390
I-4
s(S'E'
S'H'
tp391
I-1
s(S'R'
S'F'
tp392
I-5
s(S'I'
S'K'
tp393
I-3
s(S'K'
S'Z'
tp394
I-1
s(S'W'
S'-'
tp395
I-8
s(S'N'
S'E'
tp396
I1
s(S'T'
S'M'
tp397
I-1
s(S'B'
S'Z'
tp398
I2
s(S'T'
S'R'
tp399
I-2
s(S'M'
S'T'
tp400
I-1
s(S'G'
S'S'
tp401
I1
s(S'L'
S'C'
tp402
I-7
s(S'R'
S'G'
tp403
I-4
s(S'Y'
S'M'
tp404
I-4
s(S'X'
S'F'
tp405
I-3
s(S'N'
S'F'
tp406
I-4
s(S'Y'
S'Q'
tp407
I-5
s(S'N'
S'P'
tp408
I-2
s(S'R'
S'H'
tp409
I1
s(S'-'
S'Z'
tp410
I-8
s(S'W'
S'M'
tp411
I-6
s(S'C'
S'N'
tp412
I-5
s(S'V'
S'L'
tp413
I1
s(S'F'
S'I'
tp414
I0
s(S'G'
S'Q'
tp415
I-3
s(S'L'
S'A'
tp416
I-3
s(S'M'
S'I'
tp417
I1
s(S'R'
S'I'
tp418
I-2
s(S'W'
S'L'
tp419
I-3
s(S'N'
S'Z'
tp420
I0
s(S'D'
S'G'
tp421
I0
s(S'D'
S'L'
tp422
I-5
s(S'F'
S'X'
tp423
I-3
s(S'I'
S'R'
tp424
I-2
s(S'P'
S'B'
tp425
I-2
s(S'C'
S'M'
tp426
I-6
s(S'H'
S'E'
tp427
I-1
s(S'Y'
S'W'
tp428
I-2
s(S'G'
S'P'
tp429
I-2
s(S'W'
S'C'
tp430
I-8
s(S'Z'
S'K'
tp431
I-1
s(S'M'
S'P'
tp432
I-3
s(S'N'
S'S'
tp433
I1
s(S'G'
S'W'
tp434
I-8
s(S'M'
S'K'
tp435
I0
s(S'R'
S'K'
tp436
I2
s(S'D'
S'E'
tp437
I3
s(S'K'
S'E'
tp438
I-1
s(S'R'
S'L'
tp439
I-4
s(S'-'
S'V'
tp440
I-8
s(S'A'
S'I'
tp441
I-1
s(S'V'
S'Y'
tp442
I-3
s(S'W'
S'A'
tp443
I-7
s(S'Y'
S'F'
tp444
I4
s(S'T'
S'W'
tp445
I-6
s(S'V'
S'H'
tp446
I-3
s(S'F'
S'E'
tp447
I-7
s(S'M'
S'E'
tp448
I-3
s(S'R'
S'M'
tp449
I-1
s(S'C'
S'X'
tp450
I-4
s(S'E'
S'T'
tp451
I-2
s(S'H'
S'R'
tp452
I1
s(S'P'
S'I'
tp453
I-3
s(S'F'
S'T'
tp454
I-4
s(S'B'
S'A'
tp455
I0
s(S'C'
S'I'
tp456
I-3
s(S'H'
S'I'
tp457
I-4
s(S'G'
S'T'
tp458
I-1
s(S'I'
S'H'
tp459
I-4
s(S'R'
S'N'
tp460
I-1
s(S'C'
S'W'
tp461
I-8
s(S'W'
S'G'
tp462
I-8
s(S'K'
S'B'
tp463
I0
s(S'N'
S'M'
tp464
I-3
s(S'B'
S'B'
tp465
I4
s(S'T'
S'Z'
tp466
I-2
s(S'M'
S'L'
tp467
I3
s(S'G'
S'K'
tp468
I-3
s(S'M'
S'G'
tp469
I-4
s(S'K'
S'S'
tp470
I-1
s(S'E'
S'V'
tp471
I-3
s(S'X'
S'N'
tp472
I-1
s(S'N'
S'N'
tp473
I4
s(S'B'
S'C'
tp474
I-6
s(S'S'
S'-'
tp475
I-8
s(S'V'
S'K'
tp476
I-4
s(S'N'
S'X'
tp477
I-1
s(S'R'
S'P'
tp478
I-1
s(S'-'
S'R'
tp479
I-8
s(S'A'
S'M'
tp480
I-2
s(S'W'
S'E'
tp481
I-8
s(S'V'
S'Z'
tp482
I-3
s(S'F'
S'W'
tp483
I-1
s(S'B'
S'D'
tp484
I4
s(S'C'
S'F'
tp485
I-6
s(S'V'
S'D'
tp486
I-3
s(S'F'
S'A'
tp487
I-4
s(S'G'
S'I'
tp488
I-4
s(S'M'
S'A'
tp489
I-2
s(S'R'
S'Q'
tp490
I1
s(S'C'
S'T'
tp491
I-3
s(S'W'
S'D'
tp492
I-8
s(S'H'
S'V'
tp493
I-3
s(S'S'
S'F'
tp494
I-3
s(S'P'
S'T'
tp495
I-1
s(S'F'
S'P'
tp496
I-5
s(S'V'
S'-'
tp497
I-8
s(S'I'
S'Z'
tp498
I-3
s(S'B'
S'E'
tp499
I3
s(S'C'
S'E'
tp500
I-7
s(S'H'
S'M'
tp501
I-4
s(S'I'
S'E'
tp502
I-3
s(S'G'
S'H'
tp503
I-4
s(S'R'
S'R'
tp504
I6
s(S'K'
S'P'
tp505
I-2
s(S'C'
S'S'
tp506
I0
s(S'B'
S'F'
tp507
I-5
s(S'Z'
S'C'
tp508
I-7
s(S'D'
S'V'
tp509
I-3
s(S'M'
S'H'
tp510
I-4
s(S'M'
S'C'
tp511
I-6
s(S'R'
S'S'
tp512
I-1
s(S'D'
S'M'
tp513
I-4
s(S'E'
S'E'
tp514
I5
s(S'K'
S'M'
tp515
I0
s(S'B'
S'G'
tp516
I0
s(S'Z'
S'N'
tp517
I0
s(S'V'
S'G'
tp518
I-2
s(S'R'
S'T'
tp519
I-2
s(S'-'
S'N'
tp520
I-8
s(S'A'
S'A'
tp521
I3
s(S'V'
S'Q'
tp522
I-3
s(S'W'
S'Y'
tp523
I-2
s(S'F'
S'S'
tp524
I-3
s(S'B'
S'H'
tp525
I1
s(S'C'
S'B'
tp526
I-6
s(S'G'
S'M'
tp527
I-4
s(S'C'
S'P'
tp528
I-4
s(S'W'
S'X'
tp529
I-5
s(S'H'
S'Z'
tp530
I1
s(S'S'
S'B'
tp531
I0
s(S'E'
S'G'
tp532
I-1
s(S'I'
S'W'
tp533
I-6
s(S'P'
S'A'
tp534
I1
s(S'F'
S'L'
tp535
I0
s(S'B'
S'I'
tp536
I-3
s(S'C'
S'A'
tp537
I-3
s(S'G'
S'L'
tp538
I-5
s(S'R'
S'V'
tp539
I-3
s(S'T'
S'F'
tp540
I-4
s(S'Q'
S'-'
tp541
I-8
s(S'L'
S'-'
tp542
I-8
s(S'Z'
S'V'
tp543
I-3
s(S'Y'
S'P'
tp544
I-6
s(S'Z'
S'-'
tp545
I-8
s(S'M'
S'D'
tp546
I-4
s(S'G'
S'C'
tp547
I-4
s(S'R'
S'W'
tp548
I1
s(S'N'
S'D'
tp549
I2
s(S'X'
S'V'
tp550
I-1
s(S'N'
S'V'
tp551
I-3
s(S'B'
S'K'
tp552
I0
s(S'Z'
S'X'
tp553
I-1
s(S'N'
S'G'
tp554
I0
s(S'V'
S'C'
tp555
I-3
s(S'Z'
S'F'
tp556
I-6
s(S'R'
S'X'
tp557
I-2
s(S'A'
S'E'
tp558
I0
s(S'Q'
S'X'
tp559
I-1
s(S'Y'
S'H'
tp560
I-1
s(S'B'
S'L'
tp561
I-4
s(S'Z'
S'Y'
tp562
I-5
s(S'D'
S'P'
tp563
I-3
s(S'G'
S'A'
tp564
I1
s(S'R'
S'Y'
tp565
I-5
s(S'P'
S'W'
tp566
I-7
s(S'Y'
S'C'
tp567
I-1
s(S'P'
S'L'
tp568
I-3
s(S'F'
S'H'
tp569
I-3
s(S'I'
S'B'
tp570
I-3
s(S'B'
S'M'
tp571
I-4
s(S'I'
S'M'
tp572
I1
s(S'Y'
S'T'
tp573
I-3
s(S'R'
S'Z'
tp574
I-1
s(S'K'
S'X'
tp575
I-2
s(S'Q'
S'Z'
tp576
I4
s(S'W'
S'S'
tp577
I-2
s.