(dp1
(S'B'
S'N'
tp2
I4
s(S'S'
S'W'
tp3
I-3
s(S'G'
S'G'
tp4
I6
s(S'X'
S'D'
tp5
I-3
s(S'E'
S'M'
tp6
I-4
s(S'A'
S'N'
tp7
I-1
s(S'A'
S'Y'
tp8
I-5
s(S'W'
S'Q'
tp9
I-8
s(S'V'
S'N'
tp10
I-4
s(S'F'
S'K'
tp11
I-9
s(S'C'
S'Z'
tp12
I-9
s(S'V'
S'X'
tp13
I-2
s(S'G'
S'E'
tp14
I-2
s(S'E'
S'D'
tp15
I4
s(S'F'
S'Z'
tp16
I-8
s(S'W'
S'P'
tp17
I-9
s(S'H'
S'B'
tp18
I0
s(S'I'
S'T'
tp19
I-1
s(S'F'
S'D'
tp20
I-9
s(S'X'
S'M'
tp21
I-2
s(S'K'
S'V'
tp22
I-5
s(S'C'
S'Y'
tp23
I-2
s(S'*'
S'X'
tp24
I-11
s(S'G'
S'D'
tp25
I-1
s(S'T'
S'N'
tp26
I0
s(S'W'
S'W'
tp27
I13
s(S'Y'
S'X'
tp28
I-4
s(S'X'
S'Z'
tp29
I-2
s(S'S'
S'S'
tp30
I4
s(S'X'
S'C'
tp31
I-5
s(S'X'
S'H'
tp32
I-2
s(S'K'
S'C'
tp33
I-9
s(S'E'
S'F'
tp34
I-9
s(S'N'
S'L'
tp35
I-5
s(S'Z'
S'P'
tp36
I-2
s(S'A'
S'K'
tp37
I-4
s(S'A'
S'B'
tp38
I-1
s(S'Q'
S'P'
tp39
I-1
s(S'F'
S'G'
tp40
I-6
s(S'D'
S'S'
tp41
I-1
s(S'C'
S'V'
tp42
I-3
s(S'D'
S'X'
tp43
I-3
s(S'V'
S'T'
tp44
I-1
s(S'H'
S'P'
tp45
I-2
s(S'P'
S'V'
tp46
I-3
s(S'I'
S'Q'
tp47
I-4
s(S'F'
S'V'
tp48
I-4
s(S'W'
S'T'
tp49
I-8
s(S'H'
S'F'
tp50
I-3
s(S'P'
S'D'
tp51
I-4
s(S'Q'
S'R'
tp52
I0
s(S'D'
S'Q'
tp53
I0
s(S'W'
S'E'
tp54
I-11
s(S'K'
S'Q'
tp55
I-1
s(S'Z'
S'S'
tp56
I-2
s(S'D'
S'F'
tp57
I-9
s(S'X'
S'G'
tp58
I-3
s(S'X'
S'L'
tp59
I-3
s(S'G'
S'Z'
tp60
I-2
s(S'R'
S'*'
tp61
I-11
s(S'V'
S'W'
tp62
I-10
s(S'T'
S'C'
tp63
I-4
s(S'A'
S'F'
tp64
I-5
s(S'T'
S'H'
tp65
I-4
s(S'A'
S'Q'
tp66
I-2
s(S'Q'
S'T'
tp67
I-3
s(S'V'
S'F'
tp68
I-4
s(S'F'
S'C'
tp69
I-8
s(S'C'
S'R'
tp70
I-5
s(S'V'
S'P'
tp71
I-3
s(S'H'
S'T'
tp72
I-4
s(S'E'
S'L'
tp73
I-6
s(S'F'
S'R'
tp74
I-6
s(S'*'
S'G'
tp75
I-11
s(S'I'
S'G'
tp76
I-6
s(S'C'
S'Q'
tp77
I-9
s(S'*'
S'P'
tp78
I-11
s(S'Y'
S'V'
tp79
I-5
s(S'T'
S'A'
tp80
I1
s(S'T'
S'V'
tp81
I-1
s(S'Q'
S'V'
tp82
I-4
s(S'S'
S'K'
tp83
I-2
s(S'X'
S'K'
tp84
I-3
s(S'X'
S'P'
tp85
I-2
s(S'K'
S'K'
tp86
I6
s(S'E'
S'N'
tp87
I0
s(S'N'
S'T'
tp88
I0
s(S'A'
S'H'
tp89
I-4
s(S'A'
S'C'
tp90
I-4
s(S'V'
S'S'
tp91
I-3
s(S'A'
S'Z'
tp92
I-1
s(S'M'
S'Z'
tp93
I-3
s(S'Q'
S'H'
tp94
I2
s(S'V'
S'B'
tp95
I-4
s(S'P'
S'X'
tp96
I-2
s(S'H'
S'S'
tp97
I-3
s(S'Q'
S'Y'
tp98
I-7
s(S'H'
S'X'
tp99
I-2
s(S'P'
S'N'
tp100
I-3
s(S'I'
S'Y'
tp101
I-3
s(S'P'
S'G'
tp102
I-3
s(S'F'
S'N'
tp103
I-5
s(S'H'
S'N'
tp104
I2
s(S'*'
S'M'
tp105
I-11
s(S'K'
S'H'
tp106
I-3
s(S'N'
S'W'
tp107
I-5
s(S'S'
S'Y'
tp108
I-4
s(S'W'
S'N'
tp109
I-5
s(S'D'
S'Y'
tp110
I-7
s(S'E'
S'Q'
tp111
I2
s(S'K'
S'Y'
tp112
I-6
s(S'D'
S'N'
tp113
I3
s(S'X'
S'T'
tp114
I-1
s(S'Y'
S'S'
tp115
I-4
s(S'G'
S'R'
tp116
I-6
s(S'D'
S'*'
tp117
I-11
s(S'A'
S'L'
tp118
I-4
s(S'L'
S'Z'
tp119
I-4
s(S'A'
S'G'
tp120
I0
s(S'Y'
S'B'
tp121
I-4
s(S'T'
S'K'
tp122
I-1
s(S'T'
S'P'
tp123
I-2
s(S'M'
S'V'
tp124
I1
s(S'Q'
S'L'
tp125
I-3
s(S'E'
S'S'
tp126
I-2
s(S'H'
S'W'
tp127
I-4
s(S'I'
S'D'
tp128
I-4
s(S'K'
S'F'
tp129
I-9
s(S'L'
S'X'
tp130
I-3
s(S'*'
S'H'
tp131
I-11
s(S'N'
S'A'
tp132
I-1
s(S'T'
S'I'
tp133
I-1
s(S'Q'
S'N'
tp134
I-1
s(S'K'
S'W'
tp135
I-7
s(S'W'
S'B'
tp136
I-7
s(S'S'
S'C'
tp137
I-1
s(S'X'
S'S'
tp138
I-1
s(S'N'
S'B'
tp139
I4
s(S'P'
S'*'
tp140
I-11
s(S'X'
S'X'
tp141
I-3
s(S'Z'
S'L'
tp142
I-4
s(S'W'
S'*'
tp143
I-11
s(S'Y'
S'Y'
tp144
I9
s(S'G'
S'V'
tp145
I-3
s(S'L'
S'V'
tp146
I0
s(S'A'
S'R'
tp147
I-4
s(S'Z'
S'M'
tp148
I-3
s(S'M'
S'R'
tp149
I-2
s(S'Y'
S'L'
tp150
I-4
s(S'D'
S'C'
tp151
I-9
s(S'P'
S'P'
tp152
I7
s(S'D'
S'H'
tp153
I-1
s(S'Q'
S'Q'
tp154
I7
s(S'I'
S'V'
tp155
I3
s(S'P'
S'F'
tp156
I-7
s(S'I'
S'A'
tp157
I-2
s(S'F'
S'F'
tp158
I8
s(S'K'
S'T'
tp159
I-1
s(S'L'
S'T'
tp160
I-4
s(S'*'
S'E'
tp161
I-11
s(S'Q'
S'B'
tp162
I0
s(S'S'
S'Q'
tp163
I-3
s(S'X'
S'A'
tp164
I-1
s(S'W'
S'F'
tp165
I-2
s(S'D'
S'A'
tp166
I-1
s(S'E'
S'Y'
tp167
I-6
s(S'K'
S'A'
tp168
I-4
s(S'X'
S'W'
tp169
I-7
s(S'Q'
S'S'
tp170
I-3
s(S'A'
S'D'
tp171
I-1
s(S'L'
S'R'
tp172
I-5
s(S'*'
S'N'
tp173
I-11
s(S'T'
S'S'
tp174
I2
s(S'A'
S'V'
tp175
I0
s(S'T'
S'X'
tp176
I-1
s(S'M'
S'N'
tp177
I-4
s(S'Q'
S'D'
tp178
I0
s(S'X'
S'E'
tp179
I-2
s(S'S'
S'X'
tp180
I-1
s(S'E'
S'P'
tp181
I-3
s(S'V'
S'V'
tp182
I6
s(S'S'
S'G'
tp183
I0
s(S'I'
S'S'
tp184
I-4
s(S'P'
S'M'
tp185
I-5
s(S'H'
S'D'
tp186
I-1
s(S'Z'
S'B'
tp187
I2
s(S'E'
S'*'
tp188
I-11
s(S'F'
S'B'
tp189
I-7
s(S'X'
S'R'
tp190
I-3
s(S'I'
S'L'
tp191
I1
s(S'K'
S'N'
tp192
I0
s(S'L'
S'P'
tp193
I-4
s(S'Y'
S'I'
tp194
I-3
s(S'N'
S'I'
tp195
I-3
s(S'T'
S'Q'
tp196
I-3
s(S'Q'
S'F'
tp197
I-8
s(S'Z'
S'H'
tp198
I1
s(S'S'
S'M'
tp199
I-3
s(S'E'
S'R'
tp200
I-4
s(S'W'
S'Z'
tp201
I-9
s(S'B'
S'*'
tp202
I-11
s(S'Q'
S'W'
tp203
I-8
s(S'Z'
S'D'
tp204
I2
s(S'G'
S'N'
tp205
I-1
s(S'L'
S'Y'
tp206
I-4
s(S'A'
S'X'
tp207
I-1
s(S'L'
S'N'
tp208
I-5
s(S'A'
S'S'
tp209
I1
s(S'Z'
S'E'
tp210
I5
s(S'D'
S'T'
tp211
I-2
s(S'S'
S'T'
tp212
I2
s(S'P'
S'Z'
tp213
I-2
s(S'Z'
S'A'
tp214
I-1
s(S'P'
S'S'
tp215
I0
s(S'V'
S'R'
tp216
I-5
s(S'X'
S'*'
tp217
I-11
s(S'D'
S'K'
tp218
I-2
s(S'P'
S'H'
tp219
I-2
s(S'H'
S'C'
tp220
I-5
s(S'Q'
S'I'
tp221
I-4
s(S'H'
S'H'
tp222
I8
s(S'I'
S'I'
tp223
I7
s(S'*'
S'Y'
tp224
I-11
s(S'L'
S'W'
tp225
I-3
s(S'L'
S'L'
tp226
I6
s(S'V'
S'*'
tp227
I-11
s(S'C'
S'*'
tp228
I-11
s(S'Z'
S'G'
tp229
I-2
s(S'D'
S'R'
tp230
I-5
s(S'S'
S'I'
tp231
I-4
s(S'X'
S'I'
tp232
I-2
s(S'D'
S'I'
tp233
I-4
s(S'E'
S'A'
tp234
I-1
s(S'K'
S'I'
tp235
I-4
s(S'Q'
S'K'
tp236
I-1
s(S'*'
S'V'
tp237
I-11
s(S'G'
S'B'
tp238
I-1
s(S'T'
S'D'
tp239
I-2
s(S'A'
S'W'
tp240
I-8
s(S'Y'
S'R'
tp241
I-7
s(S'M'
S'F'
tp242
I-2
s(S'S'
S'P'
tp243
I0
s(S'Z'
S'I'
tp244
I-4
s(S'H'
S'Q'
tp245
I2
s(S'E'
S'X'
tp246
I-2
s(S'Y'
S'N'
tp247
I-3
s(S'I'
S'P'
tp248
I-5
s(S'E'
S'C'
tp249
I-9
s(S'H'
S'G'
tp250
I-5
s(S'P'
S'E'
tp251
I-3
s(S'Q'
S'M'
tp252
I-2
s(S'H'
S'L'
tp253
I-4
s(S'K'
S'*'
tp254
I-11
s(S'Z'
S'Z'
tp255
I5
s(S'T'
S'B'
tp256
I-1
s(S'L'
S'S'
tp257
I-5
s(S'L'
S'H'
tp258
I-4
s(S'N'
S'Q'
tp259
I-1
s(S'T'
S'Y'
tp260
I-4
s(S'K'
S'G'
tp261
I-4
s(S'S'
S'E'
tp262
I-2
s(S'E'
S'Z'
tp263
I5
s(S'Y'
S'E'
tp264
I-6
s(S'W'
S'R'
tp265
I0
s(S'H'
S'*'
tp266
I-11
s(S'V'
S'M'
tp267
I1
s(S'N'
S'R'
tp268
I-2
s(S'S'
S'D'
tp269
I-1
s(S'Z'
S'Q'
tp270
I5
s(S'G'
S'F'
tp271
I-6
s(S'F'
S'Y'
tp272
I4
s(S'L'
S'Q'
tp273
I-3
s(S'M'
S'Y'
tp274
I-6
s(S'A'
S'P'
tp275
I0
s(S'S'
S'N'
tp276
I1
s(S'C'
S'L'
tp277
I-9
s(S'L'
S'F'
tp278
I0
s(S'D'
S'W'
tp279
I-10
s(S'M'
S'B'
tp280
I-5
s(S'S'
S'L'
tp281
I-5
s(S'P'
S'R'
tp282
I-2
s(S'P'
S'K'
tp283
I-4
s(S'Y'
S'G'
tp284
I-8
s(S'C'
S'K'
tp285
I-9
s(S'H'
S'K'
tp286
I-3
s(S'Q'
S'A'
tp287
I-2
s(S'I'
S'F'
tp288
I0
s(S'*'
S'Q'
tp289
I-11
s(S'K'
S'D'
tp290
I-2
s(S'N'
S'C'
tp291
I-6
s(S'L'
S'D'
tp292
I-7
s(S'Y'
S'K'
tp293
I-6
s(S'D'
S'Z'
tp294
I2
s(S'S'
S'A'
tp295
I1
s(S'X'
S'Q'
tp296
I-2
s(S'W'
S'V'
tp297
I-10
s(S'E'
S'I'
tp298
I-3
s(S'V'
S'I'
tp299
I3
s(S'Q'
S'C'
tp300
I-9
s(S'*'
S'Z'
tp301
I-11
s(S'T'
S'G'
tp302
I-2
s(S'*'
S'S'
tp303
I-11
s(S'B'
S'P'
tp304
I-3
s(S'T'
S'L'
tp305
I-4
s(S'L'
S'M'
tp306
I2
s(S'A'
S'T'
tp307
I1
s(S'C'
S'H'
tp308
I-5
s(S'L'
S'B'
tp309
I-6
s(S'S'
S'*'
tp310
I-11
s(S'Y'
S'Z'
tp311
I-6
s(S'S'
S'Z'
tp312
I-2
s(S'P'
S'Y'
tp313
I-8
s(S'S'
S'H'
tp314
I-3
s(S'B'
S'Q'
tp315
I0
s(S'H'
S'Y'
tp316
I-1
s(S'I'
S'X'
tp317
I-2
s(S'E'
S'K'
tp318
I-2
s(S'C'
S'G'
tp319
I-6
s(S'I'
S'C'
tp320
I-4
s(S'Q'
S'E'
tp321
I2
s(S'K'
S'R'
tp322
I2
s(S'Z'
S'R'
tp323
I-1
s(S'A'
S'*'
tp324
I-11
s(S'B'
S'R'
tp325
I-3
s(S'L'
S'K'
tp326
I-5
s(S'M'
S'W'
tp327
I-7
s(S'N'
S'Y'
tp328
I-3
s(S'T'
S'E'
tp329
I-3
s(S'B'
S'S'
tp330
I0
s(S'E'
S'B'
tp331
I2
s(S'N'
S'H'
tp332
I2
s(S'V'
S'E'
tp333
I-4
s(S'Q'
S'G'
tp334
I-4
s(S'Z'
S'T'
tp335
I-3
s(S'Y'
S'D'
tp336
I-7
s(S'B'
S'T'
tp337
I-1
s(S'F'
S'Q'
tp338
I-8
s(S'G'
S'Y'
tp339
I-8
s(S'L'
S'I'
tp340
I1
s(S'M'
S'Q'
tp341
I-2
s(S'R'
S'A'
tp342
I-4
s(S'C'
S'D'
tp343
I-9
s(S'*'
S'*'
tp344
I1
s(S'S'
S'V'
tp345
I-3
s(S'D'
S'D'
tp346
I6
s(S'I'
S'*'
tp347
I-11
s(S'*'
S'D'
tp348
I-11
s(S'P'
S'C'
tp349
I-5
s(S'G'
S'X'
tp350
I-3
s(S'R'
S'B'
tp351
I-3
s(S'C'
S'C'
tp352
I9
s(S'W'
S'K'
tp353
I-7
s(S'I'
S'N'
tp354
I-3
s(S'*'
S'I'
tp355
I-11
s(S'B'
S'V'
tp356
I-4
s(S'K'
S'L'
tp357
I-5
s(S'M'
S'X'
tp358
I-2
s(S'N'
S'K'
tp359
I0
s(S'L'
S'G'
tp360
I-7
s(S'M'
S'S'
tp361
I-3
s(S'R'
S'C'
tp362
I-5
s(S'X'
S'B'
tp363
I-2
s(S'Z'
S'W'
tp364
I-9
s(S'D'
S'B'
tp365
I5
s(S'Q'
S'*'
tp366
I-11
s(S'B'
S'W'
tp367
I-7
s(S'X'
S'Y'
tp368
I-4
s(S'R'
S'D'
tp369
I-5
s(S'V'
S'A'
tp370
I0
s(S'W'
S'I'
tp371
I-8
s(S'*'
S'R'
tp372
I-11
s(S'*'
S'K'
tp373
I-11
s(S'B'
S'X'
tp374
I-2
s(S'T'
S'T'
tp375
I5
s(S'F'
S'M'
tp376
I-2
s(S'L'
S'E'
tp377
I-6
s(S'M'
S'M'
tp378
I9
s(S'R'
S'E'
tp379
I-4
s(S'W'
S'H'
tp380
I-4
s(S'S'
S'R'
tp381
I-1
s(S'E'
S'W'
tp382
I-11
s(S'P'
S'Q'
tp383
I-1
s(S'B'
S'Y'
tp384
I-4
s(S'H'
S'A'
tp385
I-4
s(S'Y'
S'A'
tp386
I-5
s(S'E'
S'H'
tp387
I-2
s(S'R'
S'F'
tp388
I-6
s(S'I'
S'K'
tp389
I-4
s(S'K'
S'Z'
tp390
I-1
s(S'*'
S'T'
tp391
I-11
s(S'N'
S'E'
tp392
I0
s(S'F'
S'*'
tp393
I-11
s(S'T'
S'M'
tp394
I-2
s(S'B'
S'Z'
tp395
I2
s(S'T'
S'R'
tp396
I-3
s(S'M'
S'T'
tp397
I-2
s(S'G'
S'S'
tp398
I0
s(S'L'
S'C'
tp399
I-9
s(S'R'
S'G'
tp400
I-6
s(S'Y'
S'M'
tp401
I-6
s(S'X'
S'F'
tp402
I-5
s(S'N'
S'F'
tp403
I-5
s(S'Y'
S'Q'
tp404
I-7
s(S'N'
S'P'
tp405
I-3
s(S'R'
S'H'
tp406
I0
s(S'W'
S'M'
tp407
I-7
s(S'C'
S'N'
tp408
I-6
s(S'V'
S'L'
tp409
I0
s(S'F'
S'I'
tp410
I0
s(S'G'
S'Q'
tp411
I-4
s(S'L'
S'A'
tp412
I-4
s(S'M'
S'I'
tp413
I1
s(S'R'
S'I'
tp414
I-3
s(S'W'
S'L'
tp415
I-3
s(S'N'
S'Z'
tp416
I0
s(S'D'
S'G'
tp417
I-1
s(S'D'
S'L'
tp418
I-7
s(S'F'
S'X'
tp419
I-5
s(S'I'
S'R'
tp420
I-3
s(S'P'
S'B'
tp421
I-3
s(S'C'
S'M'
tp422
I-8
s(S'H'
S'E'
tp423
I-2
s(S'Y'
S'W'
tp424
I-2
s(S'G'
S'P'
tp425
I-3
s(S'W'
S'C'
tp426
I-10
s(S'*'
S'A'
tp427
I-11
s(S'Z'
S'K'
tp428
I-1
s(S'M'
S'P'
tp429
I-5
s(S'N'
S'S'
tp430
I1
s(S'G'
S'W'
tp431
I-10
s(S'M'
S'K'
tp432
I0
s(S'R'
S'K'
tp433
I2
s(S'D'
S'E'
tp434
I4
s(S'K'
S'E'
tp435
I-2
s(S'T'
S'*'
tp436
I-11
s(S'*'
S'W'
tp437
I-11
s(S'R'
S'L'
tp438
I-5
s(S'A'
S'I'
tp439
I-2
s(S'V'
S'Y'
tp440
I-5
s(S'W'
S'A'
tp441
I-8
s(S'Y'
S'F'
tp442
I4
s(S'T'
S'W'
tp443
I-8
s(S'*'
S'C'
tp444
I-11
s(S'V'
S'H'
tp445
I-4
s(S'F'
S'E'
tp446
I-9
s(S'M'
S'E'
tp447
I-4
s(S'R'
S'M'
tp448
I-2
s(S'C'
S'X'
tp449
I-5
s(S'E'
S'T'
tp450
I-3
s(S'Y'
S'*'
tp451
I-11
s(S'H'
S'R'
tp452
I0
s(S'P'
S'I'
tp453
I-5
s(S'F'
S'T'
tp454
I-5
s(S'*'
S'F'
tp455
I-11
s(S'B'
S'A'
tp456
I-1
s(S'C'
S'I'
tp457
I-4
s(S'H'
S'I'
tp458
I-5
s(S'G'
S'T'
tp459
I-2
s(S'I'
S'H'
tp460
I-5
s(S'R'
S'N'
tp461
I-2
s(S'C'
S'W'
tp462
I-10
s(S'W'
S'G'
tp463
I-10
s(S'K'
S'B'
tp464
I-1
s(S'L'
S'*'
tp465
I-11
s(S'N'
S'M'
tp466
I-4
s(S'B'
S'B'
tp467
I5
s(S'T'
S'Z'
tp468
I-3
s(S'M'
S'L'
tp469
I2
s(S'G'
S'K'
tp470
I-4
s(S'M'
S'G'
tp471
I-5
s(S'K'
S'S'
tp472
I-2
s(S'E'
S'V'
tp473
I-4
s(S'X'
S'N'
tp474
I-1
s(S'N'
S'N'
tp475
I5
s(S'B'
S'C'
tp476
I-7
s(S'V'
S'K'
tp477
I-5
s(S'N'
S'X'
tp478
I-1
s(S'R'
S'P'
tp479
I-2
s(S'A'
S'M'
tp480
I-3
s(S'N'
S'*'
tp481
I-11
s(S'V'
S'Z'
tp482
I-4
s(S'F'
S'W'
tp483
I-2
s(S'B'
S'D'
tp484
I5
s(S'C'
S'F'
tp485
I-8
s(S'V'
S'D'
tp486
I-5
s(S'F'
S'A'
tp487
I-5
s(S'G'
S'I'
tp488
I-6
s(S'M'
S'A'
tp489
I-3
s(S'R'
S'Q'
tp490
I0
s(S'C'
S'T'
tp491
I-4
s(S'W'
S'D'
tp492
I-10
s(S'H'
S'V'
tp493
I-4
s(S'S'
S'F'
tp494
I-4
s(S'P'
S'T'
tp495
I-2
s(S'F'
S'P'
tp496
I-7
s(S'I'
S'Z'
tp497
I-4
s(S'B'
S'E'
tp498
I2
s(S'C'
S'E'
tp499
I-9
s(S'H'
S'M'
tp500
I-5
s(S'I'
S'E'
tp501
I-3
s(S'G'
S'H'
tp502
I-5
s(S'R'
S'R'
tp503
I7
s(S'K'
S'P'
tp504
I-4
s(S'C'
S'S'
tp505
I-1
s(S'B'
S'F'
tp506
I-7
s(S'Z'
S'C'
tp507
I-9
s(S'D'
S'V'
tp508
I-5
s(S'M'
S'H'
tp509
I-5
s(S'M'
S'C'
tp510
I-8
s(S'R'
S'S'
tp511
I-1
s(S'D'
S'M'
tp512
I-6
s(S'E'
S'E'
tp513
I6
s(S'K'
S'M'
tp514
I0
s(S'Z'
S'*'
tp515
I-11
s(S'B'
S'G'
tp516
I-1
s(S'Z'
S'N'
tp517
I0
s(S'V'
S'G'
tp518
I-3
s(S'R'
S'T'
tp519
I-3
s(S'A'
S'A'
tp520
I4
s(S'V'
S'Q'
tp521
I-4
s(S'W'
S'Y'
tp522
I-2
s(S'*'
S'B'
tp523
I-11
s(S'F'
S'S'
tp524
I-4
s(S'B'
S'H'
tp525
I0
s(S'C'
S'B'
tp526
I-7
s(S'G'
S'M'
tp527
I-5
s(S'C'
S'P'
tp528
I-5
s(S'W'
S'X'
tp529
I-7
s(S'H'
S'Z'
tp530
I1
s(S'S'
S'B'
tp531
I0
s(S'E'
S'G'
tp532
I-2
s(S'I'
S'W'
tp533
I-8
s(S'P'
S'A'
tp534
I0
s(S'F'
S'L'
tp535
I0
s(S'B'
S'I'
tp536
I-4
s(S'C'
S'A'
tp537
I-4
s(S'G'
S'L'
tp538
I-7
s(S'R'
S'V'
tp539
I-5
s(S'T'
S'F'
tp540
I-5
s(S'Z'
S'V'
tp541
I-4
s(S'Y'
S'P'
tp542
I-8
s(S'M'
S'D'
tp543
I-6
s(S'G'
S'C'
tp544
I-6
s(S'R'
S'W'
tp545
I0
s(S'N'
S'D'
tp546
I3
s(S'X'
S'V'
tp547
I-2
s(S'N'
S'V'
tp548
I-4
s(S'B'
S'K'
tp549
I-1
s(S'Z'
S'X'
tp550
I-2
s(S'N'
S'G'
tp551
I-1
s(S'V'
S'C'
tp552
I-3
s(S'Z'
S'F'
tp553
I-8
s(S'R'
S'X'
tp554
I-3
s(S'M'
S'*'
tp555
I-11
s(S'A'
S'E'
tp556
I-1
s(S'Q'
S'X'
tp557
I-2
s(S'*'
S'L'
tp558
I-11
s(S'Y'
S'H'
tp559
I-1
s(S'B'
S'L'
tp560
I-6
s(S'Z'
S'Y'
tp561
I-6
s(S'D'
S'P'
tp562
I-4
s(S'G'
S'A'
tp563
I0
s(S'R'
S'Y'
tp564
I-7
s(S'P'
S'W'
tp565
I-9
s(S'Y'
S'C'
tp566
I-2
s(S'P'
S'L'
tp567
I-4
s(S'F'
S'H'
tp568
I-3
s(S'I'
S'B'
tp569
I-4
s(S'B'
S'M'
tp570
I-5
s(S'I'
S'M'
tp571
I1
s(S'G'
S'*'
tp572
I-11
s(S'Y'
S'T'
tp573
I-4
s(S'R'
S'Z'
tp574
I-1
s(S'K'
S'X'
tp575
I-3
s(S'Q'
S'Z'
tp576
I5
s(S'W'
S'S'
tp577
I-3
s.